target datalayout = "e-m:e-p270:32:32-p271:32:32-p272:64:64-i64:64-i128:128-f80:128-n8:16:32:64-S128"
target triple = "x86_64-pc-linux-gnu"

%struct.st_engine_pile = type { i32, ptr, ptr, i32 }

; Function Attrs: inlinehint nounwind uwtable
define internal ptr @sk_ENGINE_delete(ptr noundef %0, i32 noundef %1) #3 {
  %3 = alloca ptr, align 8
  %4 = alloca i32, align 4
  store ptr %0, ptr %3, align 8, !tbaa !29
  store i32 %1, ptr %4, align 4, !tbaa !3
  %5 = load ptr, ptr %3, align 8, !tbaa !29
  %6 = load i32, ptr %4, align 4, !tbaa !3
  %7 = call ptr @OPENSSL_sk_delete(ptr noundef %5, i32 noundef %6)
  ret ptr %7
}

; Function Attrs: inlinehint nounwind uwtable
define internal i32 @sk_ENGINE_find(ptr noundef %0, ptr noundef %1) #3 {
  %3 = alloca ptr, align 8
  %4 = alloca ptr, align 8
  store ptr %0, ptr %3, align 8, !tbaa !29
  store ptr %1, ptr %4, align 8, !tbaa !11
  %5 = load ptr, ptr %3, align 8, !tbaa !29
  %6 = load ptr, ptr %4, align 8, !tbaa !11
  %7 = call i32 @OPENSSL_sk_find(ptr noundef %5, ptr noundef %6)
  ret i32 %7
}

; Function Attrs: nounwind uwtable
define internal void @int_unregister_cb(ptr noundef %0, ptr noundef %1) #0 {
  %3 = alloca ptr, align 8
  %4 = alloca ptr, align 8
  %5 = alloca i32, align 4
  store ptr %0, ptr %3, align 8, !tbaa !20
  store ptr %1, ptr %4, align 8, !tbaa !11
  call void @llvm.lifetime.start.p0(i64 4, ptr %5) #4
  br label %6

6:                                                ; preds = %13, %2
  %7 = load ptr, ptr %3, align 8, !tbaa !20
  %8 = getelementptr inbounds nuw %struct.st_engine_pile, ptr %7, i32 0, i32 1
  %9 = load ptr, ptr %8, align 8, !tbaa !23
  %10 = load ptr, ptr %4, align 8, !tbaa !11
  %11 = call i32 @sk_ENGINE_find(ptr noundef %9, ptr noundef %10)
  store i32 %11, ptr %5, align 4, !tbaa !3
  %12 = icmp sge i32 %11, 0
  br i1 %12, label %13, label %21

13:                                               ; preds = %6
  %14 = load ptr, ptr %3, align 8, !tbaa !20
  %15 = getelementptr inbounds nuw %struct.st_engine_pile, ptr %14, i32 0, i32 1
  %16 = load ptr, ptr %15, align 8, !tbaa !23
  %17 = load i32, ptr %5, align 4, !tbaa !3
  %18 = call ptr @sk_ENGINE_delete(ptr noundef %16, i32 noundef %17)
  %19 = load ptr, ptr %3, align 8, !tbaa !20
  %20 = getelementptr inbounds nuw %struct.st_engine_pile, ptr %19, i32 0, i32 3
  store i32 0, ptr %20, align 8, !tbaa !22
  br label %6, !llvm.loop !30

21:                                               ; preds = %6
  %22 = load ptr, ptr %3, align 8, !tbaa !20
  %23 = getelementptr inbounds nuw %struct.st_engine_pile, ptr %22, i32 0, i32 2
  %24 = load ptr, ptr %23, align 8, !tbaa !24
  %25 = load ptr, ptr %4, align 8, !tbaa !11
  %26 = icmp eq ptr %24, %25
  br i1 %26, label %27, label %32

27:                                               ; preds = %21
  %28 = load ptr, ptr %4, align 8, !tbaa !11
  %29 = call i32 @engine_unlocked_finish(ptr noundef %28, i32 noundef 0)
  %30 = load ptr, ptr %3, align 8, !tbaa !20
  %31 = getelementptr inbounds nuw %struct.st_engine_pile, ptr %30, i32 0, i32 2
  store ptr null, ptr %31, align 8, !tbaa !24
  br label %32

32:                                               ; preds = %27, %21
  call void @llvm.lifetime.end.p0(i64 4, ptr %5) #4
  ret void
}