; Function Attrs: nounwind uwtable
define internal void @int_unregister_cb(ptr noundef captures(none) %0, ptr noundef %1) #2 {
  %3 = getelementptr inbounds nuw i8, ptr %0, i64 8
  %4 = load ptr, ptr %3, align 8, !tbaa !16
  %5 = tail call i32 @OPENSSL_sk_find(ptr noundef %4, ptr noundef %1) #7
  %6 = icmp sgt i32 %5, -1
  br i1 %6, label %.lr.ph, label %._crit_edge

.lr.ph:                                           ; preds = %2
  %7 = getelementptr inbounds nuw i8, ptr %0, i64 24
  br label %8

8:                                                ; preds = %.lr.ph, %8
  %9 = phi i32 [ %5, %.lr.ph ], [ %13, %8 ]
  %10 = load ptr, ptr %3, align 8, !tbaa !16
  %11 = tail call ptr @OPENSSL_sk_delete(ptr noundef %10, i32 noundef range(i32 0, -2147483648) %9) #7
  store i32 0, ptr %7, align 8, !tbaa !15
  %12 = load ptr, ptr %3, align 8, !tbaa !16
  %13 = tail call i32 @OPENSSL_sk_find(ptr noundef %12, ptr noundef %1) #7
  %14 = icmp sgt i32 %13, -1
  br i1 %14, label %8, label %._crit_edge, !llvm.loop !20

._crit_edge:                                      ; preds = %8, %2
  %15 = getelementptr inbounds nuw i8, ptr %0, i64 16
  %16 = load ptr, ptr %15, align 8, !tbaa !17
  %17 = icmp eq ptr %16, %1
  br i1 %17, label %18, label %20

18:                                               ; preds = %._crit_edge
  %19 = tail call i32 @engine_unlocked_finish(ptr noundef %1, i32 noundef 0) #7
  store ptr null, ptr %15, align 8, !tbaa !17
  br label %20

20:                                               ; preds = %18, %._crit_edge
  ret void
}